; Function Attrs: null_pointer_is_valid sspstrong uwtable
define internal i32 @dissect_rtse_SessionConnectionIdentifier(i1 noundef zeroext %0, ptr noundef %1, i32 noundef %2, ptr noundef %3, ptr noundef %4, i32 noundef %5) #0 {
  %.b7 = load i1, ptr @open_request, align 1
  br i1 %.b7, label %7, label %12

7:                                                ; preds = %6
  %8 = getelementptr inbounds nuw i8, ptr %3, i64 16
  %9 = load ptr, ptr %8, align 8
  %10 = getelementptr inbounds nuw i8, ptr %9, i64 8
  %11 = load ptr, ptr %10, align 8
  tail call void @col_append_str(ptr noundef %11, i32 noundef 25, ptr noundef nonnull @.str.106)
  br label %12

12:                                               ; preds = %7, %6
  %13 = load i32, ptr @ett_rtse_SessionConnectionIdentifier, align 4
  %14 = tail call i32 @dissect_ber_sequence(i1 noundef zeroext %0, ptr noundef %3, ptr noundef %4, ptr noundef %1, i32 noundef %2, ptr noundef nonnull @SessionConnectionIdentifier_sequence, i32 noundef %5, i32 noundef %13)
  ret i32 %14
}